; ModuleID = '58/1010.c'
source_filename = "58/1010.c"
target datalayout = "e-m:e-p270:32:32-p271:32:32-p272:64:64-i64:64-f80:128-n8:16:32:64-S128"
target triple = "x86_64-pc-linux-gnu"

@.str = private unnamed_addr constant [3 x i8] c"%d\00", align 1
@.str.1 = private unnamed_addr constant [4 x i8] c"%d\0A\00", align 1

; Function Attrs: noinline nounwind uwtable
define dso_local i32 @main() #0 {
  %1 = alloca i32, align 4
  %2 = alloca i32, align 4
  %3 = alloca i32, align 4
  %4 = alloca [100 x i8], align 16
  %5 = alloca i32, align 4
  %6 = alloca i32, align 4
  %7 = alloca i32, align 4
  store i32 0, i32* %1, align 4
  %8 = call i32 (i8*, ...) @__isoc99_scanf(i8* getelementptr inbounds ([3 x i8], [3 x i8]* @.str, i64 0, i64 0), i32* %2)
  %9 = call i32 @getchar()
  store i32 1, i32* %3, align 4
  br label %10

10:                                               ; preds = %115, %0
  %11 = load i32, i32* %3, align 4
  %12 = load i32, i32* %2, align 4
  %13 = icmp sle i32 %11, %12
  br i1 %13, label %14, label %118

14:                                               ; preds = %10
  %15 = getelementptr inbounds [100 x i8], [100 x i8]* %4, i64 0, i64 0
  %16 = call i32 (i8*, ...) bitcast (i32 (...)* @gets to i32 (i8*, ...)*)(i8* %15)
  %17 = getelementptr inbounds [100 x i8], [100 x i8]* %4, i64 0, i64 0
  %18 = call i64 @strlen(i8* %17) #3
  %19 = trunc i64 %18 to i32
  store i32 %19, i32* %5, align 4
  %20 = getelementptr inbounds [100 x i8], [100 x i8]* %4, i64 0, i64 0
  %21 = load i8, i8* %20, align 16
  %22 = sext i8 %21 to i32
  %23 = icmp eq i32 %22, 95
  br i1 %23, label %46, label %24

24:                                               ; preds = %14
  %25 = getelementptr inbounds [100 x i8], [100 x i8]* %4, i64 0, i64 0
  %26 = load i8, i8* %25, align 16
  %27 = sext i8 %26 to i32
  %28 = icmp sge i32 %27, 97
  br i1 %28, label %29, label %34

29:                                               ; preds = %24
  %30 = getelementptr inbounds [100 x i8], [100 x i8]* %4, i64 0, i64 0
  %31 = load i8, i8* %30, align 16
  %32 = sext i8 %31 to i32
  %33 = icmp sle i32 %32, 122
  br i1 %33, label %46, label %34

34:                                               ; preds = %29, %24
  %35 = getelementptr inbounds [100 x i8], [100 x i8]* %4, i64 0, i64 0
  %36 = load i8, i8* %35, align 16
  %37 = sext i8 %36 to i32
  %38 = icmp sge i32 %37, 65
  br i1 %38, label %39, label %44

39:                                               ; preds = %34
  %40 = getelementptr inbounds [100 x i8], [100 x i8]* %4, i64 0, i64 0
  %41 = load i8, i8* %40, align 16
  %42 = sext i8 %41 to i32
  %43 = icmp sle i32 %42, 90
  br label %44

44:                                               ; preds = %39, %34
  %45 = phi i1 [ false, %34 ], [ %43, %39 ]
  br label %46

46:                                               ; preds = %44, %29, %14
  %47 = phi i1 [ true, %29 ], [ true, %14 ], [ %45, %44 ]
  %48 = zext i1 %47 to i32
  store i32 %48, i32* %6, align 4
  store i32 1, i32* %7, align 4
  br label %49

49:                                               ; preds = %109, %46
  %50 = load i32, i32* %7, align 4
  %51 = load i32, i32* %5, align 4
  %52 = icmp slt i32 %50, %51
  br i1 %52, label %53, label %112

53:                                               ; preds = %49
  %54 = load i32, i32* %7, align 4
  %55 = sext i32 %54 to i64
  %56 = getelementptr inbounds [100 x i8], [100 x i8]* %4, i64 0, i64 %55
  %57 = load i8, i8* %56, align 1
  %58 = sext i8 %57 to i32
  %59 = icmp eq i32 %58, 95
  br i1 %59, label %104, label %60

60:                                               ; preds = %53
  %61 = load i32, i32* %7, align 4
  %62 = sext i32 %61 to i64
  %63 = getelementptr inbounds [100 x i8], [100 x i8]* %4, i64 0, i64 %62
  %64 = load i8, i8* %63, align 1
  %65 = sext i8 %64 to i32
  %66 = icmp sge i32 %65, 97
  br i1 %66, label %67, label %74

67:                                               ; preds = %60
  %68 = load i32, i32* %7, align 4
  %69 = sext i32 %68 to i64
  %70 = getelementptr inbounds [100 x i8], [100 x i8]* %4, i64 0, i64 %69
  %71 = load i8, i8* %70, align 1
  %72 = sext i8 %71 to i32
  %73 = icmp sle i32 %72, 122
  br i1 %73, label %104, label %74

74:                                               ; preds = %67, %60
  %75 = load i32, i32* %7, align 4
  %76 = sext i32 %75 to i64
  %77 = getelementptr inbounds [100 x i8], [100 x i8]* %4, i64 0, i64 %76
  %78 = load i8, i8* %77, align 1
  %79 = sext i8 %78 to i32
  %80 = icmp sge i32 %79, 65
  br i1 %80, label %81, label %88

81:                                               ; preds = %74
  %82 = load i32, i32* %7, align 4
  %83 = sext i32 %82 to i64
  %84 = getelementptr inbounds [100 x i8], [100 x i8]* %4, i64 0, i64 %83
  %85 = load i8, i8* %84, align 1
  %86 = sext i8 %85 to i32
  %87 = icmp sle i32 %86, 90
  br i1 %87, label %104, label %88

88:                                               ; preds = %81, %74
  %89 = load i32, i32* %7, align 4
  %90 = sext i32 %89 to i64
  %91 = getelementptr inbounds [100 x i8], [100 x i8]* %4, i64 0, i64 %90
  %92 = load i8, i8* %91, align 1
  %93 = sext i8 %92 to i32
  %94 = icmp sge i32 %93, 48
  br i1 %94, label %95, label %102

95:                                               ; preds = %88
  %96 = load i32, i32* %7, align 4
  %97 = sext i32 %96 to i64
  %98 = getelementptr inbounds [100 x i8], [100 x i8]* %4, i64 0, i64 %97
  %99 = load i8, i8* %98, align 1
  %100 = sext i8 %99 to i32
  %101 = icmp sle i32 %100, 57
  br label %102

102:                                              ; preds = %95, %88
  %103 = phi i1 [ false, %88 ], [ %101, %95 ]
  br label %104

104:                                              ; preds = %102, %81, %67, %53
  %105 = phi i1 [ true, %81 ], [ true, %67 ], [ true, %53 ], [ %103, %102 ]
  %106 = zext i1 %105 to i32
  %107 = load i32, i32* %6, align 4
  %108 = and i32 %107, %106
  store i32 %108, i32* %6, align 4
  br label %109

109:                                              ; preds = %104
  %110 = load i32, i32* %7, align 4
  %111 = add nsw i32 %110, 1
  store i32 %111, i32* %7, align 4
  br label %49

112:                                              ; preds = %49
  %113 = load i32, i32* %6, align 4
  %114 = call i32 (i8*, ...) @printf(i8* getelementptr inbounds ([4 x i8], [4 x i8]* @.str.1, i64 0, i64 0), i32 %113)
  br label %115

115:                                              ; preds = %112
  %116 = load i32, i32* %3, align 4
  %117 = add nsw i32 %116, 1
  store i32 %117, i32* %3, align 4
  br label %10

118:                                              ; preds = %10
  %119 = call i32 @getchar()
  %120 = call i32 @getchar()
  %121 = call i32 @getchar()
  %122 = load i32, i32* %1, align 4
  ret i32 %122
}

declare dso_local i32 @__isoc99_scanf(i8*, ...) #1

declare dso_local i32 @getchar() #1

declare dso_local i32 @gets(...) #1

; Function Attrs: nounwind readonly
declare dso_local i64 @strlen(i8*) #2

declare dso_local i32 @printf(i8*, ...) #1


!llvm.module.flags = !{!0}
!llvm.ident = !{!1}

!0 = !{i32 1, !"wchar_size", i32 4}
!1 = !{!"clang version 10.0.0-4ubuntu1 "}
